(lp0
(S'Load'
p1
Vtrk_0
p2
Vpkg_3
p3
tp4
a(g1
g2
Vpkg_2
p5
tp6
a(g1
g2
Vpkg_8
p7
tp8
a(g1
g2
Vpkg_4
p9
tp10
a(g1
g2
Vpkg_5
p11
tp12
a(g1
g2
Vpkg_1
p13
tp14
a(g1
g2
Vpkg_7
p15
tp16
a(S'Move'
p17
g2
F0.0
F0.5
tp18
a(S'Drop'
p19
g2
g3
tp20
a(g17
g2
F0.0
F2.0
tp21
a(g19
g2
g7
tp22
a(g17
g2
F2.5
F2.0
tp23
a(g19
g2
g5
tp24
a(g17
g2
F3.0
F2.0
tp25
a(g19
g2
g9
tp26
a(g17
g2
F3.0
F2.0
tp27
a(g19
g2
g11
tp28
a(g17
g2
F3.0
F0.0
tp29
a(g19
g2
g13
tp30
a(g17
g2
F2.5
F0.5
tp31
a(g19
g2
g15
tp32
a(g17
g2
F1.0
F1.0
tp33
a(g1
Vtrk_1
p34
Vpkg_6
p35
tp36
a(g1
g34
Vpkg_0
p37
tp38
a(g1
g34
Vpkg_9
p39
tp40
a(g17
g34
F1.5
F0.0
tp41
a(g19
g34
g35
tp42
a(g17
g34
F1.5
F1.0
tp43
a(g19
g34
g37
tp44
a(g17
g34
F2.5
F2.0
tp45
a(g19
g34
g39
tp46
a(g17
g34
F2.5
F0.5
tp47
a.