(lp0
(S'Load'
p1
Vtrk_2
p2
<<<<<<< HEAD
Vpkg_11
=======
<<<<<<< HEAD
Vpkg_6
=======
Vpkg_16
>>>>>>> 65c8632af4b197489800d5ec4767e93a6782c2ee
>>>>>>> f5ca82b2251838a15c1d4566cd03caeae6a474f9
p3
tp4
a(g1
g2
<<<<<<< HEAD
Vpkg_7
=======
<<<<<<< HEAD
Vpkg_2
=======
Vpkg_6
>>>>>>> 65c8632af4b197489800d5ec4767e93a6782c2ee
>>>>>>> f5ca82b2251838a15c1d4566cd03caeae6a474f9
p5
tp6
a(g1
g2
<<<<<<< HEAD
Vpkg_1
=======
<<<<<<< HEAD
Vpkg_3
=======
Vpkg_17
>>>>>>> 65c8632af4b197489800d5ec4767e93a6782c2ee
>>>>>>> f5ca82b2251838a15c1d4566cd03caeae6a474f9
p7
tp8
a(g1
g2
Vpkg_0
p9
tp10
<<<<<<< HEAD
a(g1
g2
Vpkg_3
p11
=======
<<<<<<< HEAD
a(g1
g2
Vpkg_4
=======
a(S'Drop'
>>>>>>> 65c8632af4b197489800d5ec4767e93a6782c2ee
p11
tp12
a(g1
g2
Vpkg_7
p13
tp14
a(S'Move'
p15
g2
<<<<<<< HEAD
F1.0
F2.0
tp16
a(S'Drop'
p17
g2
g7
tp18
a(g15
g2
F1.0
F2.0
tp19
a(g17
g2
g13
tp20
a(g15
g2
F0.0
F1.0
tp21
a(g17
g2
g5
tp22
a(g15
g2
F0.0
F0.5
tp23
a(g17
g2
g3
tp24
a(g15
g2
F3.0
F0.0
tp25
a(g17
g2
g11
tp26
a(g15
g2
F2.5
F1.0
tp27
a(g17
g2
g9
tp28
a(g15
g2
=======
g5
>>>>>>> f5ca82b2251838a15c1d4566cd03caeae6a474f9
tp12
a(g1
g2
Vpkg_2
p13
tp14
a(g1
g2
Vpkg_9
p15
tp16
a(S'Move'
p17
g2
F0.0
F1.0
tp18
a(S'Drop'
p19
g2
g7
tp20
a(g17
g2
F0.0
F0.0
tp21
a(g19
g2
g3
tp22
a(g17
g2
F1.0
F0.5
tp23
a(g19
g2
g15
tp24
a(g17
g2
F2.5
F0.0
tp25
a(g19
g2
g5
tp26
a(g17
g2
F3.0
F2.5
tp27
a(g19
g2
g9
tp28
<<<<<<< HEAD
a(g17
g2
F2.0
F3.0
tp29
a(g19
g2
g11
tp30
a(g17
g2
F2.0
F2.5
tp31
a(g19
g2
g13
=======
a(g1
g18
Vpkg_12
p29
tp30
a(g9
g18
>>>>>>> 65c8632af4b197489800d5ec4767e93a6782c2ee
F2.0
F3.0
tp29
a(g1
Vtrk_2
p30
g3
tp31
<<<<<<< HEAD
a(g1
g30
g5
tp32
a(g1
g30
g7
tp33
a(g1
g30
g9
tp34
a(g1
g30
g11
tp35
a(g1
g30
g13
tp36
a(g15
g30
F1.0
F2.0
tp37
a(g17
g30
g7
tp38
a(g15
g30
F1.0
F2.0
tp39
a(g17
g30
g13
tp40
a(g15
g30
F0.0
F1.0
tp41
a(g17
g30
g5
tp42
a(g15
g30
F0.0
F0.5
tp43
a(g17
g30
g3
tp44
a(g15
g30
F3.0
F0.0
tp45
a(g17
g30
g11
tp46
a(g15
g30
F2.5
F1.0
tp47
a(g17
g30
g9
tp48
a(g15
g30
F2.0
F3.0
tp49
a(g1
Vtrk_0
p50
Vpkg_5
p51
tp52
a(g1
g50
Vpkg_0
p53
tp54
a(g1
g50
Vpkg_8
p55
tp56
a(g15
g50
F1.5
F1.0
tp57
a(g17
g50
g51
tp58
a(g15
g50
F2.5
F0.5
tp59
a(g17
g50
g55
tp60
a(g15
g50
F1.5
F2.5
tp61
a(g17
g50
g53
tp62
a(g15
g50
F0.5
F1.5
tp63
a(g1
g2
g13
tp64
a(g15
g2
F1.0
F2.0
tp65
a(g17
g2
g13
tp66
a(g15
g2
F2.0
F3.0
tp67
=======
a(g11
g18
g23
>>>>>>> f5ca82b2251838a15c1d4566cd03caeae6a474f9
tp32
a(g17
g2
F2.0
F1.5
tp33
a(g1
Vtrk_0
p34
g15
tp35
a(g1
g34
g9
tp36
a(g1
g34
g13
tp37
a(g17
g34
F1.0
F0.5
tp38
a(g19
g34
g15
tp39
a(g17
g34
F3.0
F2.5
tp40
a(g19
g34
g9
tp41
a(g17
g34
F2.0
F2.5
tp42
a(g19
g34
g13
tp43
a(g17
g34
F2.0
F1.5
tp44
a(g1
Vtrk_1
p45
Vpkg_10
p46
tp47
a(g1
g45
Vpkg_5
p48
tp49
a(g1
g45
Vpkg_6
p50
tp51
a(g1
g45
Vpkg_8
p52
tp53
a(g1
g45
Vpkg_12
p54
tp55
a(g17
g45
F1.5
F0.5
tp56
a(g19
g45
g46
tp57
a(g17
g45
F1.5
F2.0
tp58
a(g19
g45
g50
tp59
a(g17
g45
F0.5
F2.5
tp60
a(g19
g45
g48
tp61
a(g17
g45
F3.0
F2.5
tp62
a(g19
g45
g54
tp63
a(g17
g45
F2.5
F1.0
tp64
a(g19
g45
g52
tp65
a(g17
g45
F1.5
F0.5
tp66
a(g17
g2
F1.5
F0.5
tp67
a(g17
g34
F1.5
F0.5
tp68
a(g1
g2
g54
tp69
a(g17
g2
F3.0
F2.5
tp70
a(g19
g2
g54
tp71
a(g17
g2
F1.5
F0.5
<<<<<<< HEAD
tp72
=======
F4.5
tp117
a(g11
g18
g29
tp118
a(g9
g18
F2.0
F3.5
tp119
>>>>>>> 65c8632af4b197489800d5ec4767e93a6782c2ee
>>>>>>> f5ca82b2251838a15c1d4566cd03caeae6a474f9
a.