(lp0
(S'Load'
p1
Vtrk_2
p2
Vpkg_9
p3
tp4
a(g1
g2
Vpkg_5
p5
tp6
a(g1
g2
Vpkg_2
p7
tp8
a(g1
g2
Vpkg_1
p9
tp10
a(S'Move'
p11
g2
F0.5
F1.0
tp12
a(S'Drop'
p13
g2
g3
tp14
a(g11
g2
F0.0
F2.5
tp15
a(g13
g2
g5
tp16
a(g11
g2
F0.5
F3.0
tp17
a(g13
g2
g9
tp18
a(g11
g2
F3.0
F3.0
tp19
a(g13
g2
g7
tp20
a(g11
g2
F1.5
F2.5
tp21
a(g1
Vtrk_0
p22
Vpkg_8
p23
tp24
a(g1
g22
Vpkg_4
p25
tp26
a(g1
g22
Vpkg_3
p27
tp28
a(g11
g22
F2.0
F1.0
tp29
a(g13
g22
g23
tp30
a(g11
g22
F0.0
F3.0
tp31
a(g13
g22
g25
tp32
a(g11
g22
F1.0
F2.5
tp33
a(g13
g22
g27
tp34
a(g11
g22
F3.0
F2.5
tp35
a(g1
Vtrk_1
p36
g23
tp37
a(g1
g36
g25
tp38
a(g1
g36
g27
tp39
a(g11
g36
F2.0
F1.0
tp40
a(g13
g36
g23
tp41
a(g11
g36
F0.0
F3.0
tp42
a(g13
g36
g25
tp43
a(g11
g36
F1.0
F2.5
tp44
a(g13
g36
g27
tp45
a(g11
g36
F3.0
F2.5
tp46
a(g1
g2
g9
tp47
a(g1
g2
g9
tp48
a(g1
g2
g9
tp49
a(g11
g2
F0.5
F3.0
tp50
a(g13
g2
g9
tp51
a(g11
g2
F0.5
F3.0
tp52
a(g13
g2
g9
tp53
a(g11
g2
F0.5
F3.0
tp54
a(g13
g2
g9
tp55
a(g11
g2
F1.5
F2.5
tp56
a.