(lp0
(S'Load'
p1
Vtrk_1
p2
<<<<<<< HEAD
Vpkg_6
=======
Vpkg_16
>>>>>>> 65c8632af4b197489800d5ec4767e93a6782c2ee
p3
tp4
a(g1
g2
<<<<<<< HEAD
Vpkg_2
=======
Vpkg_6
>>>>>>> 65c8632af4b197489800d5ec4767e93a6782c2ee
p5
tp6
a(g1
g2
<<<<<<< HEAD
Vpkg_3
=======
Vpkg_17
>>>>>>> 65c8632af4b197489800d5ec4767e93a6782c2ee
p7
tp8
a(S'Move'
p9
g2
F3.5
F0.5
tp10
<<<<<<< HEAD
a(g1
g2
Vpkg_4
=======
a(S'Drop'
>>>>>>> 65c8632af4b197489800d5ec4767e93a6782c2ee
p11
tp12
a(g1
g2
Vpkg_7
p13
tp14
a(S'Move'
p15
g2
<<<<<<< HEAD
F1.0
F2.0
tp16
a(S'Drop'
p17
g2
g7
tp18
a(g15
g2
F1.0
F2.0
tp19
a(g17
g2
g13
tp20
a(g15
g2
F0.0
F1.0
tp21
a(g17
g2
g5
tp22
a(g15
g2
F0.0
F0.5
tp23
a(g17
g2
g3
tp24
a(g15
g2
F3.0
F0.0
tp25
a(g17
g2
g11
tp26
a(g15
g2
F2.5
F1.0
tp27
a(g17
g2
g9
tp28
a(g15
g2
=======
g5
tp12
a(g9
g2
F3.0
F0.5
tp13
a(g11
g2
g3
tp14
a(g9
g2
F1.0
F4.5
tp15
a(g11
g2
g7
tp16
a(g9
g2
F3.5
F2.5
tp17
a(g1
Vtrk_3
p18
Vpkg_7
p19
tp20
a(g1
g18
Vpkg_3
p21
tp22
a(g1
g18
Vpkg_0
p23
tp24
a(g1
g18
Vpkg_1
p25
tp26
a(g1
g18
Vpkg_9
p27
tp28
a(g1
g18
Vpkg_12
p29
tp30
a(g9
g18
>>>>>>> 65c8632af4b197489800d5ec4767e93a6782c2ee
F2.0
F3.0
tp29
a(g1
Vtrk_2
p30
g3
tp31
<<<<<<< HEAD
a(g1
g30
g5
tp32
a(g1
g30
g7
tp33
a(g1
g30
g9
tp34
a(g1
g30
g11
tp35
a(g1
g30
g13
tp36
a(g15
g30
F1.0
F2.0
tp37
a(g17
g30
g7
tp38
a(g15
g30
F1.0
F2.0
tp39
a(g17
g30
g13
tp40
a(g15
g30
F0.0
F1.0
tp41
a(g17
g30
g5
tp42
a(g15
g30
F0.0
F0.5
tp43
a(g17
g30
g3
tp44
a(g15
g30
F3.0
F0.0
tp45
a(g17
g30
g11
tp46
a(g15
g30
F2.5
F1.0
tp47
a(g17
g30
g9
tp48
a(g15
g30
F2.0
F3.0
tp49
a(g1
Vtrk_0
p50
Vpkg_5
p51
tp52
a(g1
g50
Vpkg_0
p53
tp54
a(g1
g50
Vpkg_8
p55
tp56
a(g15
g50
F1.5
F1.0
tp57
a(g17
g50
g51
tp58
a(g15
g50
F2.5
F0.5
tp59
a(g17
g50
g55
tp60
a(g15
g50
F1.5
F2.5
tp61
a(g17
g50
g53
tp62
a(g15
g50
F0.5
F1.5
tp63
a(g1
g2
g13
tp64
a(g15
g2
F1.0
F2.0
tp65
a(g17
g2
g13
tp66
a(g15
g2
F2.0
F3.0
tp67
=======
a(g11
g18
g23
tp32
a(g9
g18
F1.5
F2.0
tp33
a(g11
g18
g21
tp34
a(g9
g18
F2.5
F1.5
tp35
a(g11
g18
g27
tp36
a(g9
g18
F0.0
F0.5
tp37
a(g11
g18
g19
tp38
a(g9
g18
F0.5
F4.5
tp39
a(g11
g18
g29
tp40
a(g9
g18
F4.0
F4.5
tp41
a(g11
g18
g25
tp42
a(g9
g18
F2.0
F3.5
tp43
a(g1
Vtrk_0
p44
Vpkg_5
p45
tp46
a(g1
g44
Vpkg_2
p47
tp48
a(g1
g44
Vpkg_15
p49
tp50
a(g9
g44
F1.0
F0.5
tp51
a(g11
g44
g45
tp52
a(g9
g44
F4.0
F1.5
tp53
a(g11
g44
g49
tp54
a(g9
g44
F3.5
F2.0
tp55
a(g11
g44
g47
tp56
a(g9
g44
F1.0
F3.0
tp57
a(g1
Vtrk_2
p58
g45
tp59
a(g1
g58
g47
tp60
a(g1
g58
g49
tp61
a(g9
g58
F1.0
F0.5
tp62
a(g11
g58
g45
tp63
a(g9
g58
F4.0
F1.5
tp64
a(g11
g58
g49
tp65
a(g9
g58
F3.5
F2.0
tp66
a(g11
g58
g47
tp67
a(g9
g58
F1.0
F3.0
tp68
a(g9
g2
F2.0
F3.5
tp69
a(g1
g2
g29
tp70
a(g1
g2
g29
tp71
a(g1
g2
g29
tp72
a(g1
g2
g29
tp73
a(g1
g2
g29
tp74
a(g1
g2
g29
tp75
a(g1
g2
g29
tp76
a(g1
g2
g29
tp77
a(g9
g2
F0.5
F4.5
tp78
a(g11
g2
g29
tp79
a(g9
g2
F0.5
F4.5
tp80
a(g11
g2
g29
tp81
a(g9
g2
F0.5
F4.5
tp82
a(g11
g2
g29
tp83
a(g9
g2
F0.5
F4.5
tp84
a(g11
g2
g29
tp85
a(g9
g2
F0.5
F4.5
tp86
a(g11
g2
g29
tp87
a(g9
g2
F0.5
F4.5
tp88
a(g11
g2
g29
tp89
a(g9
g2
F0.5
F4.5
tp90
a(g11
g2
g29
tp91
a(g9
g2
F0.5
F4.5
tp92
a(g11
g2
g29
tp93
a(g9
g2
F2.0
F3.5
tp94
a(g1
g18
g29
tp95
a(g1
g18
g29
tp96
a(g1
g18
g29
tp97
a(g1
g18
g29
tp98
a(g1
g18
g29
tp99
a(g1
g18
g29
tp100
a(g1
g18
g29
tp101
a(g1
g18
g29
tp102
a(g9
g18
F0.5
F4.5
tp103
a(g11
g18
g29
tp104
a(g9
g18
F0.5
F4.5
tp105
a(g11
g18
g29
tp106
a(g9
g18
F0.5
F4.5
tp107
a(g11
g18
g29
tp108
a(g9
g18
F0.5
F4.5
tp109
a(g11
g18
g29
tp110
a(g9
g18
F0.5
F4.5
tp111
a(g11
g18
g29
tp112
a(g9
g18
F0.5
F4.5
tp113
a(g11
g18
g29
tp114
a(g9
g18
F0.5
F4.5
tp115
a(g11
g18
g29
tp116
a(g9
g18
F0.5
F4.5
tp117
a(g11
g18
g29
tp118
a(g9
g18
F2.0
F3.5
tp119
>>>>>>> 65c8632af4b197489800d5ec4767e93a6782c2ee
a.