(lp0
(S'Load'
p1
Vtrk_3
p2
Vpkg_17
p3
tp4
a(g1
g2
Vpkg_2
p5
tp6
a(g1
g2
Vpkg_3
p7
tp8
a(g1
g2
Vpkg_16
p9
tp10
a(g1
g2
Vpkg_0
p11
tp12
a(S'Move'
p13
g2
F0.5
F2.0
tp14
a(S'Drop'
p15
g2
g3
tp16
a(g13
g2
F1.5
F4.5
tp17
a(g15
g2
g7
tp18
a(g13
g2
F2.5
F2.5
tp19
a(g15
g2
g11
tp20
a(g13
g2
F3.5
F2.5
tp21
a(g15
g2
g9
tp22
a(g13
g2
F3.5
F0.0
tp23
a(g15
g2
g5
tp24
a(g13
g2
F1.5
F0.5
tp25
a(g1
Vtrk_1
p26
Vpkg_13
p27
tp28
a(g1
g26
Vpkg_10
p29
tp30
a(g1
g26
Vpkg_8
p31
tp32
a(g1
g26
Vpkg_9
p33
tp34
a(g1
g26
Vpkg_4
p35
tp36
a(g13
g26
F1.5
F0.5
tp37
a(g15
g26
g27
tp38
a(g13
g26
F4.0
F0.0
tp39
a(g15
g26
g35
tp40
a(g13
g26
F3.0
F3.5
tp41
a(g15
g26
g31
tp42
a(g13
g26
F2.0
F3.5
tp43
a(g15
g26
g33
tp44
a(g13
g26
F2.0
F2.5
tp45
a(g15
g26
g29
tp46
a(g13
g26
F2.0
F1.0
tp47
a(g1
Vtrk_2
p48
Vpkg_12
p49
tp50
a(g1
g48
Vpkg_1
p51
tp52
a(g1
g48
Vpkg_18
p53
tp54
a(g1
g48
Vpkg_11
p55
tp56
a(g1
g48
Vpkg_6
p57
tp58
a(g1
g48
Vpkg_15
p59
tp60
a(g1
g48
Vpkg_7
p61
tp62
a(g13
g48
F1.0
F1.0
tp63
a(g15
g48
g49
tp64
a(g13
g48
F0.5
F3.5
tp65
a(g15
g48
g53
tp66
a(g13
g48
F1.0
F3.5
tp67
a(g15
g48
g61
tp68
a(g13
g48
F2.0
F3.5
tp69
a(g15
g48
g55
tp70
a(g13
g48
F2.0
F4.5
tp71
a(g15
g48
g59
tp72
a(g13
g48
F3.0
F2.5
tp73
a(g15
g48
g57
tp74
a(g13
g48
F3.5
F0.5
tp75
a(g15
g48
g51
tp76
a(g13
g48
F1.5
F0.5
tp77
a(g1
Vtrk_0
p78
g49
tp79
a(g1
g78
g61
tp80
a(g1
g78
g55
tp81
a(g1
g78
g57
tp82
a(g1
g78
g59
tp83
a(g13
g78
F1.0
F1.0
tp84
a(g15
g78
g49
tp85
a(g13
g78
F1.0
F3.5
tp86
a(g15
g78
g61
tp87
a(g13
g78
F2.0
F3.5
tp88
a(g15
g78
g55
tp89
a(g13
g78
F2.0
F4.5
tp90
a(g15
g78
g59
tp91
a(g13
g78
F3.0
F2.5
tp92
a(g15
g78
g57
tp93
a(g13
g78
F1.5
F0.5
tp94
a(g13
g2
F1.5
F0.5
tp95
a(g1
g26
g35
tp96
a(g1
g26
g35
tp97
a(g13
g26
F4.0
F0.0
tp98
a(g15
g26
g35
tp99
a(g13
g26
F4.0
F0.0
tp100
a(g15
g26
g35
tp101
a(g13
g26
F2.0
F1.0
tp102
a(g1
g48
g59
tp103
a(g13
g48
F2.0
F4.5
tp104
a(g15
g48
g59
tp105
a(g13
g48
F1.5
F0.5
tp106
a.