(lp0
(S'Load'
p1
Vtrk_2
p2
Vpkg_10
p3
tp4
a(g1
g2
Vpkg_7
p5
tp6
a(g1
g2
Vpkg_6
p7
tp8
a(g1
g2
Vpkg_3
p9
tp10
a(g1
g2
Vpkg_0
p11
tp12
a(g1
g2
Vpkg_12
p13
tp14
a(S'Move'
p15
g2
F0.0
F1.5
tp16
a(S'Drop'
p17
g2
g3
tp18
a(g15
g2
F0.5
F2.5
tp19
a(g17
g2
g5
tp20
a(g15
g2
F0.5
F3.0
tp21
a(g17
g2
g7
tp22
a(g15
g2
F1.5
F2.5
tp23
a(g17
g2
g13
tp24
a(g15
g2
F2.0
F1.5
tp25
a(g17
g2
g11
tp26
a(g15
g2
F3.0
F0.0
tp27
a(g17
g2
g9
tp28
a(g15
g2
F2.0
F0.0
tp29
a(g1
Vtrk_0
p30
Vpkg_4
p31
tp32
a(g1
g30
Vpkg_1
p33
tp34
a(g1
g30
Vpkg_11
p35
tp36
a(g15
g30
F0.0
F0.5
tp37
a(g17
g30
g31
tp38
a(g15
g30
F0.0
F1.0
tp39
a(g17
g30
g33
tp40
a(g15
g30
F1.5
F2.0
tp41
a(g17
g30
g35
tp42
a(g15
g30
F2.0
F1.0
tp43
a(g1
Vtrk_1
p44
Vpkg_9
p45
tp46
a(g1
g44
Vpkg_5
p47
tp48
a(g1
g44
Vpkg_8
p49
tp50
a(g1
g44
Vpkg_2
p51
tp52
a(g15
g44
F1.5
F0.0
tp53
a(g17
g44
g45
tp54
a(g15
g44
F1.0
F2.0
tp55
a(g17
g44
g47
tp56
a(g15
g44
F1.0
F2.0
tp57
a(g17
g44
g49
tp58
a(g15
g44
F3.0
F2.0
tp59
a(g17
g44
g51
tp60
a(g15
g44
F2.0
F1.0
tp61
a.