(lp0
(S'Load'
p1
Vtrk_2
p2
Vpkg_0
p3
tp4
a(g1
g2
Vpkg_6
p5
tp6
a(g1
g2
Vpkg_7
p7
tp8
a(g1
g2
Vpkg_4
p9
tp10
a(g1
g2
Vpkg_1
p11
tp12
a(g1
g2
Vpkg_5
p13
tp14
a(g1
g2
Vpkg_2
p15
tp16
a(g1
g2
Vpkg_3
p17
tp18
a(S'Move'
p19
g2
I4
I4
tp20
a(S'Drop'
p21
g2
g9
tp22
a(g19
g2
I3
I6
tp23
a(g21
g2
g13
tp24
a(g19
g2
I1
I5
tp25
a(g21
g2
g5
tp26
a(g19
g2
I1
I1
tp27
a(g21
g2
g3
tp28
a(g19
g2
I2
I3
tp29
a(g21
g2
g7
tp30
a(g19
g2
I4
I2
tp31
a(g21
g2
g11
tp32
a(g19
g2
I5
I2
tp33
a(g21
g2
g15
tp34
a(g19
g2
I6
I4
tp35
a(g21
g2
g17
tp36
a(g19
g2
I7
I4
tp37
a(g1
Vtrk_1
p38
g3
tp39
a(g1
g38
g5
tp40
a(g1
g38
g7
tp41
a(g1
g38
g9
tp42
a(g1
g38
g11
tp43
a(g1
g38
g13
tp44
a(g1
g38
g15
tp45
a(g1
g38
g17
tp46
a(g19
g38
I4
I4
tp47
a(g21
g38
g9
tp48
a(g19
g38
I3
I6
tp49
a(g21
g38
g13
tp50
a(g19
g38
I1
I5
tp51
a(g21
g38
g5
tp52
a(g19
g38
I1
I1
tp53
a(g21
g38
g3
tp54
a(g19
g38
I2
I3
tp55
a(g21
g38
g7
tp56
a(g19
g38
I4
I2
tp57
a(g21
g38
g11
tp58
a(g19
g38
I5
I2
tp59
a(g21
g38
g15
tp60
a(g19
g38
I6
I4
tp61
a(g21
g38
g17
tp62
a(g19
g38
I7
I4
tp63
a(g1
Vtrk_3
p64
Vpkg_6
p65
tp66
a(g19
g64
I4
I6
tp67
a(g21
g64
g65
tp68
a(g19
g64
I7
I4
tp69
a(g1
g2
g17
tp70
a(g19
g2
I6
I4
tp71
a(g21
g2
g17
tp72
a(g19
g2
I7
I4
tp73
a(g1
g64
g65
tp74
a(g1
g64
g65
tp75
a(g19
g64
I4
I6
tp76
a(g21
g64
g65
tp77
a(g19
g64
I4
I6
tp78
a(g21
g64
g65
tp79
a(g19
g64
I7
I4
tp80
a.