(lp0
(S'Load'
p1
Vtrk_1
p2
Vpkg_6
p3
tp4
a(g1
g2
Vpkg_2
p5
tp6
a(g1
g2
Vpkg_3
p7
tp8
a(g1
g2
Vpkg_1
p9
tp10
a(g1
g2
Vpkg_4
p11
tp12
a(g1
g2
Vpkg_7
p13
tp14
a(S'Move'
p15
g2
F1.0
F2.0
tp16
a(S'Drop'
p17
g2
g7
tp18
a(g15
g2
F1.0
F2.0
tp19
a(g17
g2
g13
tp20
a(g15
g2
F0.0
F1.0
tp21
a(g17
g2
g5
tp22
a(g15
g2
F0.0
F0.5
tp23
a(g17
g2
g3
tp24
a(g15
g2
F3.0
F0.0
tp25
a(g17
g2
g11
tp26
a(g15
g2
F2.5
F1.0
tp27
a(g17
g2
g9
tp28
a(g15
g2
F2.0
F3.0
tp29
a(g1
Vtrk_2
p30
g3
tp31
a(g1
g30
g5
tp32
a(g1
g30
g7
tp33
a(g1
g30
g9
tp34
a(g1
g30
g11
tp35
a(g1
g30
g13
tp36
a(g15
g30
F1.0
F2.0
tp37
a(g17
g30
g7
tp38
a(g15
g30
F1.0
F2.0
tp39
a(g17
g30
g13
tp40
a(g15
g30
F0.0
F1.0
tp41
a(g17
g30
g5
tp42
a(g15
g30
F0.0
F0.5
tp43
a(g17
g30
g3
tp44
a(g15
g30
F3.0
F0.0
tp45
a(g17
g30
g11
tp46
a(g15
g30
F2.5
F1.0
tp47
a(g17
g30
g9
tp48
a(g15
g30
F2.0
F3.0
tp49
a(g1
Vtrk_0
p50
Vpkg_5
p51
tp52
a(g1
g50
Vpkg_0
p53
tp54
a(g1
g50
Vpkg_8
p55
tp56
a(g15
g50
F1.5
F1.0
tp57
a(g17
g50
g51
tp58
a(g15
g50
F2.5
F0.5
tp59
a(g17
g50
g55
tp60
a(g15
g50
F1.5
F2.5
tp61
a(g17
g50
g53
tp62
a(g15
g50
F0.5
F1.5
tp63
a(g1
g2
g13
tp64
a(g15
g2
F1.0
F2.0
tp65
a(g17
g2
g13
tp66
a(g15
g2
F2.0
F3.0
tp67
a.