(lp0
(S'Load'
p1
Vtrk_2
p2
Vpkg_11
p3
tp4
a(g1
g2
Vpkg_7
p5
tp6
a(g1
g2
Vpkg_1
p7
tp8
a(g1
g2
Vpkg_0
p9
tp10
a(g1
g2
Vpkg_3
p11
tp12
a(g1
g2
Vpkg_2
p13
tp14
a(g1
g2
Vpkg_9
p15
tp16
a(S'Move'
p17
g2
F0.0
F1.0
tp18
a(S'Drop'
p19
g2
g7
tp20
a(g17
g2
F0.0
F0.0
tp21
a(g19
g2
g3
tp22
a(g17
g2
F1.0
F0.5
tp23
a(g19
g2
g15
tp24
a(g17
g2
F2.5
F0.0
tp25
a(g19
g2
g5
tp26
a(g17
g2
F3.0
F2.5
tp27
a(g19
g2
g9
tp28
a(g17
g2
F2.0
F3.0
tp29
a(g19
g2
g11
tp30
a(g17
g2
F2.0
F2.5
tp31
a(g19
g2
g13
tp32
a(g17
g2
F2.0
F1.5
tp33
a(g1
Vtrk_0
p34
g15
tp35
a(g1
g34
g9
tp36
a(g1
g34
g13
tp37
a(g17
g34
F1.0
F0.5
tp38
a(g19
g34
g15
tp39
a(g17
g34
F3.0
F2.5
tp40
a(g19
g34
g9
tp41
a(g17
g34
F2.0
F2.5
tp42
a(g19
g34
g13
tp43
a(g17
g34
F2.0
F1.5
tp44
a(g1
Vtrk_1
p45
Vpkg_10
p46
tp47
a(g1
g45
Vpkg_5
p48
tp49
a(g1
g45
Vpkg_6
p50
tp51
a(g1
g45
Vpkg_8
p52
tp53
a(g1
g45
Vpkg_12
p54
tp55
a(g17
g45
F1.5
F0.5
tp56
a(g19
g45
g46
tp57
a(g17
g45
F1.5
F2.0
tp58
a(g19
g45
g50
tp59
a(g17
g45
F0.5
F2.5
tp60
a(g19
g45
g48
tp61
a(g17
g45
F3.0
F2.5
tp62
a(g19
g45
g54
tp63
a(g17
g45
F2.5
F1.0
tp64
a(g19
g45
g52
tp65
a(g17
g45
F1.5
F0.5
tp66
a(g17
g2
F1.5
F0.5
tp67
a(g17
g34
F1.5
F0.5
tp68
a(g1
g2
g54
tp69
a(g17
g2
F3.0
F2.5
tp70
a(g19
g2
g54
tp71
a(g17
g2
F1.5
F0.5
tp72
a.